; Function Attrs: mustprogress nounwind uwtable
define hidden void @_ZNK20ZStatPhaseConcurrent14register_startEP17ConcurrentGCTimerRK11TimeInstantI30CompositeCounterRepresentation29CompositeElapsedCounterSourceE(ptr nocapture noundef nonnull readonly align 8 dereferenceable(48) %0, ptr noundef nonnull %1, ptr noundef nonnull align 8 dereferenceable(16) %2) unnamed_addr #0 align 2 {
  %4 = alloca %class.LogTargetHandle, align 8
  %5 = getelementptr inbounds i8, ptr %0, i64 16
  %6 = load ptr, ptr %5, align 8
  tail call void @_ZN17ConcurrentGCTimer28register_gc_concurrent_startEPKcRK11TimeInstantI30CompositeCounterRepresentation29CompositeElapsedCounterSourceE(ptr noundef nonnull align 8 dereferenceable(112) %1, ptr noundef %6, ptr noundef nonnull align 8 dereferenceable(16) %2) #20
  call void @llvm.lifetime.start.p0(i64 16, ptr nonnull %4)
  store i32 2, ptr %4, align 8
  %7 = getelementptr inbounds i8, ptr %4, i64 8
  store ptr @_ZN16LogTagSetMappingILN6LogTag4typeE49ELS1_114ELS1_142ELS1_0ELS1_0ELS1_0EE7_tagsetE, ptr %7, align 8
  %8 = load volatile ptr, ptr getelementptr inbounds (i8, ptr @_ZN16LogTagSetMappingILN6LogTag4typeE49ELS1_114ELS1_142ELS1_0ELS1_0ELS1_0EE7_tagsetE, i64 56), align 8
  %.not.i = icmp eq ptr %8, null
  br i1 %.not.i, label %_ZNK10ZStatPhase9log_startE15LogTargetHandleb.exit, label %9

9:                                                ; preds = %3
  %10 = load ptr, ptr %5, align 8
  call void (ptr, ptr, ...) @_ZN15LogTargetHandle5printEPKcz(ptr noundef nonnull align 8 dereferenceable(16) %4, ptr noundef nonnull @.str.12, ptr noundef %10)
  br label %_ZNK10ZStatPhase9log_startE15LogTargetHandleb.exit

_ZNK10ZStatPhase9log_startE15LogTargetHandleb.exit: ; preds = %3, %9
  call void @llvm.lifetime.end.p0(i64 16, ptr nonnull %4)
  ret void
}